target datalayout = "e-m:e-p270:32:32-p271:32:32-p272:64:64-i64:64-i128:128-f80:128-n8:16:32:64-S128"
target triple = "x86_64-pc-linux-gnu"

%struct.BEValue = type { i8, i32, ptr, ptr, ptr }

; Function Attrs: nounwind uwtable
define dso_local void @llvm_value_deref(ptr noundef %0, ptr noundef %1) #0 {
  %3 = alloca ptr, align 8
  %4 = alloca ptr, align 8
  %5 = alloca ptr, align 8
  store ptr %0, ptr %3, align 8
  store ptr %1, ptr %4, align 8
  %6 = load ptr, ptr %3, align 8
  %7 = load ptr, ptr %4, align 8
  call void @llvm_value_rvalue(ptr noundef %6, ptr noundef %7)
  %8 = load ptr, ptr %4, align 8
  %9 = load i8, ptr %8, align 8
  %10 = and i8 %9, -32
  %11 = or i8 %10, 1
  store i8 %11, ptr %8, align 8
  %12 = load ptr, ptr %4, align 8
  %13 = getelementptr inbounds %struct.BEValue, ptr %12, i32 0, i32 2
  %14 = load ptr, ptr %13, align 8
  %15 = call ptr @type_get_indexed_type(ptr noundef %14)
  %16 = call ptr @type_lowering(ptr noundef %15)
  %17 = load ptr, ptr %4, align 8
  %18 = getelementptr inbounds %struct.BEValue, ptr %17, i32 0, i32 2
  store ptr %16, ptr %18, align 8
  store ptr %16, ptr %5, align 8
  %19 = load ptr, ptr %5, align 8
  %20 = call i32 @type_abi_alignment(ptr noundef %19)
  %21 = load ptr, ptr %4, align 8
  %22 = getelementptr inbounds %struct.BEValue, ptr %21, i32 0, i32 1
  store i32 %20, ptr %22, align 4
  ret void
}