; Function Attrs: nounwind uwtable
define dso_local void @llvm_value_deref(ptr noundef %0, ptr noundef captures(none) %1) local_unnamed_addr #0 {
  tail call void @llvm_value_rvalue(ptr noundef %0, ptr noundef %1)
  %3 = load i8, ptr %1, align 8
  %4 = and i8 %3, -32
  %5 = or disjoint i8 %4, 1
  store i8 %5, ptr %1, align 8
  %6 = getelementptr inbounds nuw i8, ptr %1, i64 8
  %7 = load ptr, ptr %6, align 8
  %8 = tail call ptr @type_get_indexed_type(ptr noundef %7) #3
  %9 = tail call fastcc ptr @type_lowering(ptr noundef %8)
  store ptr %9, ptr %6, align 8
  %10 = tail call i32 @type_abi_alignment(ptr noundef %9) #3
  %11 = getelementptr inbounds nuw i8, ptr %1, i64 4
  store i32 %10, ptr %11, align 4
  ret void
}